; Function Attrs: nounwind uwtable
define hidden void @zim_SQLite3_busyTimeout(ptr noundef readonly captures(none) %0, ptr noundef writeonly captures(none) %1) #0 {
  %3 = alloca i64, align 8
  %4 = getelementptr inbounds nuw i8, ptr %0, i64 32
  call void @llvm.lifetime.start.p0(i64 8, ptr nonnull %3) #17
  %5 = load ptr, ptr %4, align 8, !tbaa !8
  %6 = getelementptr inbounds nuw i8, ptr %0, i64 44
  %7 = load i32, ptr %6, align 4, !tbaa !8
  %8 = call i32 (i32, ptr, ...) @zend_parse_parameters(i32 noundef %7, ptr noundef nonnull @.str.13, ptr noundef nonnull %3) #17
  %9 = icmp eq i32 %8, -1
  br i1 %9, label %10, label %13

10:                                               ; preds = %2
  %11 = load ptr, ptr getelementptr inbounds nuw (i8, ptr @executor_globals, i64 960), align 8, !tbaa !9
  %12 = icmp ne ptr %11, null
  call void @llvm.assume(i1 %12)
  br label %27

13:                                               ; preds = %2
  %14 = getelementptr inbounds i8, ptr %5, i64 -128
  %15 = load i8, ptr %14, align 8, !tbaa !44, !range !55, !noundef !56
  %16 = trunc nuw i8 %15 to i1
  br i1 %16, label %20, label %17

17:                                               ; preds = %13
  call void (ptr, ptr, ...) @zend_throw_error(ptr noundef null, ptr noundef nonnull @.str.8) #17
  %18 = load ptr, ptr getelementptr inbounds nuw (i8, ptr @executor_globals, i64 960), align 8, !tbaa !9
  %19 = icmp ne ptr %18, null
  call void @llvm.assume(i1 %19)
  br label %27

20:                                               ; preds = %13
  %21 = getelementptr inbounds i8, ptr %5, i64 -120
  %22 = load ptr, ptr %21, align 8, !tbaa !59
  %23 = load i64, ptr %3, align 8, !tbaa !4
  %24 = trunc i64 %23 to i32
  %25 = call i32 @sqlite3_busy_timeout(ptr noundef %22, i32 noundef %24) #17
  %26 = getelementptr inbounds nuw i8, ptr %1, i64 8
  store i32 3, ptr %26, align 8, !tbaa !8
  br label %27

27:                                               ; preds = %20, %17, %10
  call void @llvm.lifetime.end.p0(i64 8, ptr nonnull %3) #17
  ret void
}